; Function Attrs: nounwind uwtable
define noalias noundef ptr @Gia_SweeperCollectValidProbeIds(ptr noundef readonly captures(none) %0) local_unnamed_addr #0 {
  %2 = getelementptr inbounds nuw i8, ptr %0, i64 768
  %3 = load ptr, ptr %2, align 8, !tbaa !10
  %4 = tail call noalias dereferenceable_or_null(16) ptr @malloc(i64 noundef 16) #25
  %5 = getelementptr inbounds nuw i8, ptr %4, i64 4
  store i32 0, ptr %5, align 4, !tbaa !3
  store i32 1000, ptr %4, align 8, !tbaa !33
  %6 = tail call noalias dereferenceable_or_null(4000) ptr @malloc(i64 noundef 4000) #25
  %7 = getelementptr inbounds nuw i8, ptr %4, i64 8
  store ptr %6, ptr %7, align 8, !tbaa !34
  %8 = getelementptr inbounds nuw i8, ptr %3, i64 16
  %9 = load ptr, ptr %8, align 8, !tbaa !35
  %10 = getelementptr i8, ptr %9, i64 4
  %.val10 = load i32, ptr %10, align 4, !tbaa !3
  %11 = icmp sgt i32 %.val10, 0
  br i1 %11, label %.lr.ph, label %.critedge

.lr.ph:                                           ; preds = %1, %41
  %12 = phi ptr [ %42, %41 ], [ %9, %1 ]
  %13 = phi ptr [ %.pre.i14, %41 ], [ %6, %1 ]
  %indvars.iv = phi i64 [ %indvars.iv.next, %41 ], [ 0, %1 ]
  %14 = getelementptr i8, ptr %12, i64 8
  %.val9 = load ptr, ptr %14, align 8, !tbaa !34
  %15 = getelementptr inbounds nuw i32, ptr %.val9, i64 %indvars.iv
  %16 = load i32, ptr %15, align 4, !tbaa !44
  %17 = icmp slt i32 %16, 0
  br i1 %17, label %41, label %18

18:                                               ; preds = %.lr.ph
  %19 = load i32, ptr %5, align 4, !tbaa !3
  %20 = load i32, ptr %4, align 8, !tbaa !33
  %21 = icmp eq i32 %19, %20
  br i1 %21, label %22, label %Vec_IntPush.exit

22:                                               ; preds = %18
  %23 = icmp slt i32 %19, 16
  br i1 %23, label %24, label %29

24:                                               ; preds = %22
  %.not9.i.i = icmp eq ptr %13, null
  br i1 %.not9.i.i, label %27, label %25

25:                                               ; preds = %24
  %26 = tail call dereferenceable_or_null(64) ptr @realloc(ptr noundef nonnull %13, i64 noundef 64) #26
  br label %Vec_IntPush.exit.sink.split

27:                                               ; preds = %24
  %28 = tail call noalias dereferenceable_or_null(64) ptr @malloc(i64 noundef 64) #25
  br label %Vec_IntPush.exit.sink.split

29:                                               ; preds = %22
  %30 = shl nuw nsw i32 %19, 1
  %.not9.i9.i = icmp eq ptr %13, null
  %31 = zext nneg i32 %30 to i64
  %32 = shl nuw nsw i64 %31, 2
  br i1 %.not9.i9.i, label %35, label %33

33:                                               ; preds = %29
  %34 = tail call ptr @realloc(ptr noundef nonnull %13, i64 noundef %32) #26
  br label %Vec_IntPush.exit.sink.split

35:                                               ; preds = %29
  %36 = tail call noalias ptr @malloc(i64 noundef %32) #25
  br label %Vec_IntPush.exit.sink.split

Vec_IntPush.exit.sink.split:                      ; preds = %33, %35, %25, %27
  %.sink16 = phi ptr [ %26, %25 ], [ %28, %27 ], [ %34, %33 ], [ %36, %35 ]
  %.sink = phi i32 [ 16, %25 ], [ 16, %27 ], [ %30, %33 ], [ %30, %35 ]
  store ptr %.sink16, ptr %7, align 8, !tbaa !34
  store i32 %.sink, ptr %4, align 8, !tbaa !33
  br label %Vec_IntPush.exit

Vec_IntPush.exit:                                 ; preds = %Vec_IntPush.exit.sink.split, %18
  %.pre.i15 = phi ptr [ %13, %18 ], [ %.sink16, %Vec_IntPush.exit.sink.split ]
  %37 = add nsw i32 %19, 1
  store i32 %37, ptr %5, align 4, !tbaa !3
  %38 = sext i32 %19 to i64
  %39 = getelementptr inbounds i32, ptr %.pre.i15, i64 %38
  %40 = trunc nuw nsw i64 %indvars.iv to i32
  store i32 %40, ptr %39, align 4, !tbaa !44
  %.pre = load ptr, ptr %8, align 8, !tbaa !35
  br label %41

41:                                               ; preds = %.lr.ph, %Vec_IntPush.exit
  %42 = phi ptr [ %12, %.lr.ph ], [ %.pre, %Vec_IntPush.exit ]
  %.pre.i14 = phi ptr [ %13, %.lr.ph ], [ %.pre.i15, %Vec_IntPush.exit ]
  %indvars.iv.next = add nuw nsw i64 %indvars.iv, 1
  %43 = getelementptr i8, ptr %42, i64 4
  %.val = load i32, ptr %43, align 4, !tbaa !3
  %44 = sext i32 %.val to i64
  %45 = icmp slt i64 %indvars.iv.next, %44
  br i1 %45, label %.lr.ph, label %.critedge, !llvm.loop !69

.critedge:                                        ; preds = %41, %1
  ret ptr %4
}